CCS PCM C Compiler, Version 5.007, 61971               23-Þub-19 14:38

               Filename:   C:\Users\NURULLAH\Desktop\ccs c örnek\7 seg display\main.lst

               ROM used:   101 words (1%)
                           Largest free fragment is 2048
               RAM used:   6 (2%) at main() level
                           7 (2%) worst case
               Stack used: 0 locations
               Stack size: 8

*
0000:  MOVLW  00
0001:  MOVWF  0A
0002:  GOTO   02F
0003:  NOP
.................... #include <main.h> 
.................... #include <16F877A.h> 
.................... //////// Standard Header file for the PIC16F877A device //////////////// 
.................... #device PIC16F877A 
0004:  BCF    0A.0
0005:  BCF    0A.1
0006:  BCF    0A.2
0007:  ADDWF  02,F
0008:  RETLW  3F
0009:  RETLW  06
000A:  RETLW  5B
000B:  RETLW  4F
000C:  RETLW  66
000D:  RETLW  6D
000E:  RETLW  7C
000F:  RETLW  07
0010:  RETLW  7F
0011:  RETLW  6F
0012:  RETLW  77
0013:  RETLW  7C
0014:  RETLW  39
0015:  RETLW  5E
0016:  RETLW  79
0017:  RETLW  71
....................  
.................... #list 
....................  
.................... #device ADC=16 
....................  
.................... #FUSES NOWDT                    //No Watch Dog Timer 
.................... #FUSES NOBROWNOUT               //No brownout reset 
.................... #FUSES NOLVP                    //No low voltage prgming, B3(PIC16) or B5(PIC18) used for I/O 
....................  
.................... #use delay(crystal=4000000) 
0018:  MOVLW  22
0019:  MOVWF  04
001A:  BCF    03.7
001B:  MOVF   00,W
001C:  BTFSC  03.2
001D:  GOTO   02C
001E:  MOVLW  01
001F:  MOVWF  78
0020:  CLRF   77
0021:  DECFSZ 77,F
0022:  GOTO   021
0023:  DECFSZ 78,F
0024:  GOTO   020
0025:  MOVLW  4A
0026:  MOVWF  77
0027:  DECFSZ 77,F
0028:  GOTO   027
0029:  GOTO   02A
002A:  DECFSZ 00,F
002B:  GOTO   01E
002C:  BCF    0A.3
002D:  BCF    0A.4
002E:  GOTO   061 (RETURN)
....................  
....................  
....................  
.................... #byte portb=7 
....................  
.................... void main() 
002F:  BSF    03.5
0030:  BSF    1F.0
0031:  BSF    1F.1
0032:  BSF    1F.2
0033:  BCF    1F.3
0034:  MOVLW  07
0035:  MOVWF  1C
0036:  BCF    03.7
0037:  MOVLW  1F
0038:  ANDWF  03,F
.................... { 
....................    set_tris_b(0x00); 
0039:  MOVLW  00
003A:  MOVWF  06
....................    output_b(0x00); 
003B:  CLRF   06
003C:  BCF    03.5
003D:  CLRF   06
....................    setup_psp(psp_disabled); 
003E:  BSF    03.5
003F:  BCF    09.4
....................    setup_ccp1(ccp_off); 
0040:  MOVLW  F0
0041:  BCF    03.5
0042:  ANDWF  17,F
....................    setup_ccp2(ccp_off); 
0043:  ANDWF  1D,F
....................    setup_timer_1(t1_disabled); 
0044:  CLRF   10
....................    setup_timer_2(t2_disabled,0,1); 
0045:  MOVLW  00
0046:  MOVWF  78
0047:  MOVWF  12
0048:  MOVLW  00
0049:  BSF    03.5
004A:  MOVWF  12
....................    setup_adc_ports(no_analogs); 
004B:  BSF    1F.0
004C:  BSF    1F.1
004D:  BSF    1F.2
004E:  BCF    1F.3
....................    setup_adc(adc_off); 
004F:  BCF    03.5
0050:  BCF    1F.0
....................   const int dizi[16]={0x3f,0x06,0x5b,0x4f,0x66,0x6d,0x7c,0x07,0x7f,0x6f,0x77,0x7c,0x39,0x5e,0x79,0x71}; 
....................  
....................    while(TRUE) 
....................    { 
....................    for(int i=0;i<=15;i++) 
0051:  CLRF   21
0052:  MOVF   21,W
0053:  SUBLW  0F
0054:  BTFSS  03.0
0055:  GOTO   063
....................    { 
....................    output_b(dizi[i]); 
0056:  MOVF   21,W
0057:  CALL   004
0058:  MOVWF  22
0059:  BSF    03.5
005A:  CLRF   06
005B:  BCF    03.5
005C:  MOVF   22,W
005D:  MOVWF  06
....................    delay_ms(200); 
005E:  MOVLW  C8
005F:  MOVWF  22
0060:  GOTO   018
0061:  INCF   21,F
0062:  GOTO   052
....................    } 
0063:  GOTO   051
....................    } 
....................  
.................... } 
0064:  SLEEP

Configuration Fuses:
   Word  1: 3F31   XT NOWDT PUT NOBROWNOUT NOLVP NOCPD NOWRT NODEBUG NOPROTECT
